target datalayout = "e-m:e-p270:32:32-p271:32:32-p272:64:64-i64:64-i128:128-f80:128-n8:16:32:64-S128"
target triple = "x86_64-pc-linux-gnu"

%"class.std::vector.10" = type { %"struct.std::_Vector_base.11" }
%"struct.std::_Vector_base.11" = type { %"struct.std::_Vector_base<float, std::allocator<float>>::_Vector_impl" }
%"struct.std::_Vector_base<float, std::allocator<float>>::_Vector_impl" = type { %"struct.std::_Vector_base<float, std::allocator<float>>::_Vector_impl_data" }
%"struct.std::_Vector_base<float, std::allocator<float>>::_Vector_impl_data" = type { ptr, ptr, ptr }
%"struct.faiss::IndexIVF" = type <{ %"struct.faiss::Index.base", [4 x i8], %"struct.faiss::IndexIVFInterface", ptr, i8, [7 x i8], i64, i32, i32, %"struct.faiss::DirectMap", i8, [7 x i8] }>
%"struct.faiss::Index.base" = type <{ ptr, i32, [4 x i8], i64, i8, i8, [2 x i8], i32, float }>
%"struct.faiss::IndexIVFInterface" = type { ptr, %"struct.faiss::Level1Quantizer", i64, i64 }
%"struct.faiss::Level1Quantizer" = type { ptr, i64, i8, i8, %"struct.faiss::ClusteringParameters", ptr }
%"struct.faiss::ClusteringParameters" = type { i32, i32, i8, i8, i8, i8, i8, i32, i32, i32, i64 }
%"struct.faiss::DirectMap" = type { i32, %"class.std::vector", %"class.std::unordered_map" }
%"class.std::vector" = type { %"struct.std::_Vector_base" }
%"struct.std::_Vector_base" = type { %"struct.std::_Vector_base<long, std::allocator<long>>::_Vector_impl" }
%"struct.std::_Vector_base<long, std::allocator<long>>::_Vector_impl" = type { %"struct.std::_Vector_base<long, std::allocator<long>>::_Vector_impl_data" }
%"struct.std::_Vector_base<long, std::allocator<long>>::_Vector_impl_data" = type { ptr, ptr, ptr }
%"class.std::unordered_map" = type { %"class.std::_Hashtable" }
%"class.std::_Hashtable" = type { ptr, i64, %"struct.std::__detail::_Hash_node_base", i64, %"struct.std::__detail::_Prime_rehash_policy", ptr }
%"struct.std::__detail::_Hash_node_base" = type { ptr }
%"struct.std::__detail::_Prime_rehash_policy" = type { float, i64 }
%"struct.faiss::IndexIVFAdditiveQuantizer" = type <{ %"struct.faiss::IndexIVF.base", [7 x i8], ptr, i32, [4 x i8] }>
%"struct.faiss::IndexIVF.base" = type <{ %"struct.faiss::Index.base", [4 x i8], %"struct.faiss::IndexIVFInterface", ptr, i8, [7 x i8], i64, i32, i32, %"struct.faiss::DirectMap", i8 }>
%"struct.faiss::Quantizer" = type { ptr, i64, i64 }
%"class.std::vector.5" = type { %"struct.std::_Vector_base.6" }
%"struct.std::_Vector_base.6" = type { %"struct.std::_Vector_base<unsigned long, std::allocator<unsigned long>>::_Vector_impl" }
%"struct.std::_Vector_base<unsigned long, std::allocator<unsigned long>>::_Vector_impl" = type { %"struct.std::_Vector_base<unsigned long, std::allocator<unsigned long>>::_Vector_impl_data" }
%"struct.std::_Vector_base<unsigned long, std::allocator<unsigned long>>::_Vector_impl_data" = type { ptr, ptr, ptr }
%"struct.faiss::IndexFlat1D" = type { %"struct.faiss::IndexFlatL2", i8, %"class.std::vector" }
%"struct.faiss::IndexFlatL2" = type { %"struct.faiss::IndexFlat", %"class.std::vector.10" }
%"struct.faiss::IndexFlat" = type { %"struct.faiss::IndexFlatCodes" }
%"struct.faiss::IndexFlatCodes" = type { %"struct.faiss::Index.base", i64, %"class.std::vector.15" }
%"class.std::vector.15" = type { %"struct.std::_Vector_base.16" }
%"struct.std::_Vector_base.16" = type { %"struct.std::_Vector_base<unsigned char, std::allocator<unsigned char>>::_Vector_impl" }
%"struct.std::_Vector_base<unsigned char, std::allocator<unsigned char>>::_Vector_impl" = type { %"struct.std::_Vector_base<unsigned char, std::allocator<unsigned char>>::_Vector_impl_data" }
%"struct.std::_Vector_base<unsigned char, std::allocator<unsigned char>>::_Vector_impl_data" = type { ptr, ptr, ptr }
%"struct.faiss::IndexIVFResidualQuantizer" = type { %"struct.faiss::IndexIVFAdditiveQuantizer.base", %"struct.faiss::ResidualQuantizer" }
%"struct.faiss::IndexIVFAdditiveQuantizer.base" = type <{ %"struct.faiss::IndexIVF.base", [7 x i8], ptr, i32 }>
%"struct.faiss::ResidualQuantizer" = type { %"struct.faiss::AdditiveQuantizer.base", i32, i32, i32, i32, i32, %"struct.faiss::ProgressiveDimClusteringParameters", ptr, %"class.std::vector.10", %"class.std::vector.10" }
%"struct.faiss::AdditiveQuantizer.base" = type <{ %"struct.faiss::Quantizer", i64, %"class.std::vector.5", %"class.std::vector.10", %"class.std::vector.5", i64, i64, i64, i8, i8, i8, [5 x i8], %"struct.faiss::IndexFlat1D", %"class.std::vector.10", i64, i32, float, float }>
%"struct.faiss::ProgressiveDimClusteringParameters" = type <{ %"struct.faiss::ClusteringParameters", i32, i8, [3 x i8] }>
%"struct.faiss::InvertedLists" = type <{ ptr, i64, i64, i8, [7 x i8] }>

; Function Attrs: mustprogress nounwind uwtable
define void @_ZN5faiss25IndexIVFAdditiveQuantizerD2Ev(ptr noundef nonnull align 8 dereferenceable(276) %0) unnamed_addr #0 align 2 {
  %2 = alloca ptr, align 8
  store ptr %0, ptr %2, align 8
  %3 = load ptr, ptr %2, align 8
  call void @_ZN5faiss8IndexIVFD2Ev(ptr noundef nonnull align 8 dereferenceable(257) %3) #7
  ret void
}

; Function Attrs: mustprogress uwtable
define void @_ZN5faiss25IndexIVFAdditiveQuantizerC2EPNS_17AdditiveQuantizerEPNS_5IndexEmmNS_10MetricTypeE(ptr noundef nonnull align 8 dereferenceable(276) %0, ptr noundef %1, ptr noundef %2, i64 noundef %3, i64 noundef %4, i32 noundef %5) unnamed_addr #2 align 2 {
  %7 = alloca ptr, align 8
  %8 = alloca ptr, align 8
  %9 = alloca ptr, align 8
  %10 = alloca i64, align 8
  %11 = alloca i64, align 8
  %12 = alloca i32, align 4
  store ptr %0, ptr %7, align 8
  store ptr %1, ptr %8, align 8
  store ptr %2, ptr %9, align 8
  store i64 %3, ptr %10, align 8
  store i64 %4, ptr %11, align 8
  store i32 %5, ptr %12, align 4
  %13 = load ptr, ptr %7, align 8
  %14 = load ptr, ptr %9, align 8
  %15 = load i64, ptr %10, align 8
  %16 = load i64, ptr %11, align 8
  %17 = load i32, ptr %12, align 4
  call void @_ZN5faiss8IndexIVFC2EPNS_5IndexEmmmNS_10MetricTypeE(ptr noundef nonnull align 8 dereferenceable(257) %13, ptr noundef %14, i64 noundef %15, i64 noundef %16, i64 noundef 0, i32 noundef %17)
  store ptr getelementptr inbounds ({ [35 x ptr], [6 x ptr] }, ptr @_ZTVN5faiss25IndexIVFAdditiveQuantizerE, i32 0, i32 0, i32 2), ptr %13, align 8
  %18 = getelementptr inbounds i8, ptr %13, i64 40
  store ptr getelementptr inbounds ({ [35 x ptr], [6 x ptr] }, ptr @_ZTVN5faiss25IndexIVFAdditiveQuantizerE, i32 0, i32 1, i32 2), ptr %18, align 8
  %19 = getelementptr inbounds %"struct.faiss::IndexIVFAdditiveQuantizer", ptr %13, i32 0, i32 2
  %20 = load ptr, ptr %8, align 8
  store ptr %20, ptr %19, align 8
  %21 = getelementptr inbounds %"struct.faiss::IndexIVFAdditiveQuantizer", ptr %13, i32 0, i32 3
  store i32 0, ptr %21, align 8
  %22 = getelementptr inbounds %"struct.faiss::IndexIVF", ptr %13, i32 0, i32 10
  store i8 1, ptr %22, align 8
  ret void
}

; Function Attrs: mustprogress uwtable
define void @_ZN5faiss25IndexIVFResidualQuantizerC2EPNS_5IndexEmmRKSt6vectorImSaImEENS_10MetricTypeENS_17AdditiveQuantizer13Search_type_tE(ptr noundef nonnull align 8 dereferenceable(712) %0, ptr noundef %1, i64 noundef %2, i64 noundef %3, ptr noundef nonnull align 8 dereferenceable(24) %4, i32 noundef %5, i32 noundef %6) unnamed_addr #2 align 2 personality ptr @__gxx_personality_v0 {
  %8 = alloca ptr, align 8
  %9 = alloca ptr, align 8
  %10 = alloca i64, align 8
  %11 = alloca i64, align 8
  %12 = alloca ptr, align 8
  %13 = alloca i32, align 4
  %14 = alloca i32, align 4
  %15 = alloca ptr, align 8
  %16 = alloca i32, align 4
  store ptr %0, ptr %8, align 8
  store ptr %1, ptr %9, align 8
  store i64 %2, ptr %10, align 8
  store i64 %3, ptr %11, align 8
  store ptr %4, ptr %12, align 8
  store i32 %5, ptr %13, align 4
  store i32 %6, ptr %14, align 4
  %17 = load ptr, ptr %8, align 8
  store ptr getelementptr inbounds ({ [35 x ptr], [6 x ptr] }, ptr @_ZTVN5faiss25IndexIVFResidualQuantizerE, i32 0, i32 0, i32 2), ptr %17, align 8
  %18 = getelementptr inbounds i8, ptr %17, i64 40
  store ptr getelementptr inbounds ({ [35 x ptr], [6 x ptr] }, ptr @_ZTVN5faiss25IndexIVFResidualQuantizerE, i32 0, i32 1, i32 2), ptr %18, align 8
  %19 = getelementptr inbounds %"struct.faiss::IndexIVFResidualQuantizer", ptr %17, i32 0, i32 1
  %20 = load ptr, ptr %9, align 8
  %21 = load i64, ptr %10, align 8
  %22 = load i64, ptr %11, align 8
  %23 = load i32, ptr %13, align 4
  call void @_ZN5faiss25IndexIVFAdditiveQuantizerC2EPNS_17AdditiveQuantizerEPNS_5IndexEmmNS_10MetricTypeE(ptr noundef nonnull align 8 dereferenceable(276) %17, ptr noundef %19, ptr noundef %20, i64 noundef %21, i64 noundef %22, i32 noundef %23)
  store ptr getelementptr inbounds ({ [35 x ptr], [6 x ptr] }, ptr @_ZTVN5faiss25IndexIVFResidualQuantizerE, i32 0, i32 0, i32 2), ptr %17, align 8
  %24 = getelementptr inbounds i8, ptr %17, i64 40
  store ptr getelementptr inbounds ({ [35 x ptr], [6 x ptr] }, ptr @_ZTVN5faiss25IndexIVFResidualQuantizerE, i32 0, i32 1, i32 2), ptr %24, align 8
  %25 = getelementptr inbounds %"struct.faiss::IndexIVFResidualQuantizer", ptr %17, i32 0, i32 1
  %26 = load i64, ptr %10, align 8
  %27 = load ptr, ptr %12, align 8
  %28 = load i32, ptr %14, align 4
  invoke void @_ZN5faiss17ResidualQuantizerC1EmRKSt6vectorImSaImEENS_17AdditiveQuantizer13Search_type_tE(ptr noundef nonnull align 8 dereferenceable(432) %25, i64 noundef %26, ptr noundef nonnull align 8 dereferenceable(24) %27, i32 noundef %28)
          to label %29 unwind label %37

29:                                               ; preds = %7
  %30 = getelementptr inbounds %"struct.faiss::IndexIVFResidualQuantizer", ptr %17, i32 0, i32 1
  %31 = getelementptr inbounds %"struct.faiss::Quantizer", ptr %30, i32 0, i32 2
  %32 = load i64, ptr %31, align 8
  %33 = getelementptr inbounds %"struct.faiss::IndexIVF", ptr %17, i32 0, i32 3
  %34 = load ptr, ptr %33, align 8
  %35 = getelementptr inbounds %"struct.faiss::InvertedLists", ptr %34, i32 0, i32 2
  store i64 %32, ptr %35, align 8
  %36 = getelementptr inbounds %"struct.faiss::IndexIVF", ptr %17, i32 0, i32 6
  store i64 %32, ptr %36, align 8
  ret void

37:                                               ; preds = %7
  %38 = landingpad { ptr, i32 }
          cleanup
  %39 = extractvalue { ptr, i32 } %38, 0
  store ptr %39, ptr %15, align 8
  %40 = extractvalue { ptr, i32 } %38, 1
  store i32 %40, ptr %16, align 4
  call void @_ZN5faiss25IndexIVFAdditiveQuantizerD2Ev(ptr noundef nonnull align 8 dereferenceable(276) %17) #7
  br label %41

41:                                               ; preds = %37
  %42 = load ptr, ptr %15, align 8
  %43 = load i32, ptr %16, align 4
  %44 = insertvalue { ptr, i32 } poison, ptr %42, 0
  %45 = insertvalue { ptr, i32 } %44, i32 %43, 1
  resume { ptr, i32 } %45
}