; Function Attrs: mustprogress uwtable
define void @_ZN5faiss25IndexIVFResidualQuantizerC2EPNS_5IndexEmmRKSt6vectorImSaImEENS_10MetricTypeENS_17AdditiveQuantizer13Search_type_tE(ptr noundef nonnull align 8 dereferenceable(712) %0, ptr noundef %1, i64 noundef %2, i64 noundef %3, ptr noundef nonnull align 8 dereferenceable(24) %4, i32 noundef %5, i32 noundef %6) unnamed_addr #2 align 2 personality ptr @__gxx_personality_v0 {
  store ptr getelementptr inbounds ({ [35 x ptr], [6 x ptr] }, ptr @_ZTVN5faiss25IndexIVFResidualQuantizerE, i64 0, i32 0, i64 2), ptr %0, align 8
  %8 = getelementptr inbounds i8, ptr %0, i64 40
  store ptr getelementptr inbounds ({ [35 x ptr], [6 x ptr] }, ptr @_ZTVN5faiss25IndexIVFResidualQuantizerE, i64 0, i32 1, i64 2), ptr %8, align 8
  %9 = getelementptr inbounds i8, ptr %0, i64 280
  tail call void @_ZN5faiss8IndexIVFC2EPNS_5IndexEmmmNS_10MetricTypeE(ptr noundef nonnull align 8 dereferenceable(257) %0, ptr noundef %1, i64 noundef %2, i64 noundef %3, i64 noundef 0, i32 noundef %5)
  %10 = getelementptr inbounds i8, ptr %0, i64 264
  store ptr %9, ptr %10, align 8
  %11 = getelementptr inbounds i8, ptr %0, i64 272
  store i32 0, ptr %11, align 8
  %12 = getelementptr inbounds i8, ptr %0, i64 256
  store i8 1, ptr %12, align 8
  store ptr getelementptr inbounds ({ [35 x ptr], [6 x ptr] }, ptr @_ZTVN5faiss25IndexIVFResidualQuantizerE, i64 0, i32 0, i64 2), ptr %0, align 8
  store ptr getelementptr inbounds ({ [35 x ptr], [6 x ptr] }, ptr @_ZTVN5faiss25IndexIVFResidualQuantizerE, i64 0, i32 1, i64 2), ptr %8, align 8
  invoke void @_ZN5faiss17ResidualQuantizerC1EmRKSt6vectorImSaImEENS_17AdditiveQuantizer13Search_type_tE(ptr noundef nonnull align 8 dereferenceable(432) %9, i64 noundef %2, ptr noundef nonnull align 8 dereferenceable(24) %4, i32 noundef %6)
          to label %13 unwind label %20

13:                                               ; preds = %7
  %14 = getelementptr inbounds i8, ptr %0, i64 296
  %15 = load i64, ptr %14, align 8
  %16 = getelementptr inbounds i8, ptr %0, i64 136
  %17 = load ptr, ptr %16, align 8
  %18 = getelementptr inbounds i8, ptr %17, i64 16
  store i64 %15, ptr %18, align 8
  %19 = getelementptr inbounds i8, ptr %0, i64 152
  store i64 %15, ptr %19, align 8
  ret void

20:                                               ; preds = %7
  %21 = landingpad { ptr, i32 }
          cleanup
  tail call void @_ZN5faiss8IndexIVFD2Ev(ptr noundef nonnull align 8 dereferenceable(257) %0) #9
  resume { ptr, i32 } %21
}